; Function Attrs: mustprogress nofree norecurse nosync nounwind willreturn memory(read, inaccessiblemem: none) uwtable
define hidden noundef i32 @_ZNK19OpenColorIO_v2_4dev20GenericGpuShaderDesc14getNumTexturesEv(ptr nocapture noundef nonnull readonly align 8 dereferenceable(24) %this) unnamed_addr #7 align 2 personality ptr @__gxx_personality_v0 {
entry:
  %m_implGeneric.i = getelementptr inbounds i8, ptr %this, i64 16
  %0 = load ptr, ptr %m_implGeneric.i, align 8
  %m_textures = getelementptr inbounds i8, ptr %0, i64 8
  %_M_finish.i = getelementptr inbounds i8, ptr %0, i64 16
  %1 = load ptr, ptr %_M_finish.i, align 8
  %2 = load ptr, ptr %m_textures, align 8
  %sub.ptr.lhs.cast.i = ptrtoint ptr %1 to i64
  %sub.ptr.rhs.cast.i = ptrtoint ptr %2 to i64
  %sub.ptr.sub.i = sub i64 %sub.ptr.lhs.cast.i, %sub.ptr.rhs.cast.i
  %sub.ptr.div.i = sdiv exact i64 %sub.ptr.sub.i, 112
  %conv = trunc i64 %sub.ptr.div.i to i32
  ret i32 %conv
}